; Function Attrs: nounwind uwtable
define noalias noundef ptr @Gia_ManSimReadFile(ptr noundef readonly captures(none) %0) local_unnamed_addr #1 {
  %2 = tail call noalias ptr @fopen(ptr noundef %0, ptr noundef nonnull @.str.9)
  %3 = icmp eq ptr %2, null
  br i1 %3, label %4, label %5

4:                                                ; preds = %1
  %puts = tail call i32 @puts(ptr nonnull dereferenceable(1) @str)
  br label %40

5:                                                ; preds = %1
  %6 = tail call noalias dereferenceable_or_null(16) ptr @malloc(i64 noundef 16) #25
  %7 = getelementptr inbounds nuw i8, ptr %6, i64 4
  store i32 0, ptr %7, align 4, !tbaa !34
  store i32 1000, ptr %6, align 8, !tbaa !35
  %8 = tail call noalias dereferenceable_or_null(4000) ptr @malloc(i64 noundef 4000) #25
  %9 = getelementptr inbounds nuw i8, ptr %6, i64 8
  store ptr %8, ptr %9, align 8, !tbaa !36
  %10 = tail call i32 @fgetc(ptr noundef nonnull %2)
  %.not12 = icmp eq i32 %10, -1
  br i1 %.not12, label %._crit_edge, label %.lr.ph

.lr.ph:                                           ; preds = %5, %37
  %11 = phi ptr [ %.pre.i13, %37 ], [ %8, %5 ]
  %12 = phi i32 [ %38, %37 ], [ %10, %5 ]
  %13 = and i32 %12, -2
  %or.cond = icmp eq i32 %13, 48
  br i1 %or.cond, label %14, label %37

14:                                               ; preds = %.lr.ph
  %15 = add nsw i32 %12, -48
  %16 = load i32, ptr %7, align 4, !tbaa !34
  %17 = load i32, ptr %6, align 8, !tbaa !35
  %18 = icmp eq i32 %16, %17
  br i1 %18, label %19, label %Vec_IntPush.exit

19:                                               ; preds = %14
  %20 = icmp slt i32 %16, 16
  br i1 %20, label %21, label %26

21:                                               ; preds = %19
  %.not9.i.i = icmp eq ptr %11, null
  br i1 %.not9.i.i, label %24, label %22

22:                                               ; preds = %21
  %23 = tail call dereferenceable_or_null(64) ptr @realloc(ptr noundef nonnull %11, i64 noundef 64) #24
  br label %Vec_IntPush.exit.sink.split

24:                                               ; preds = %21
  %25 = tail call noalias dereferenceable_or_null(64) ptr @malloc(i64 noundef 64) #25
  br label %Vec_IntPush.exit.sink.split

26:                                               ; preds = %19
  %27 = shl nuw nsw i32 %16, 1
  %.not9.i9.i = icmp eq ptr %11, null
  %28 = zext nneg i32 %27 to i64
  %29 = shl nuw nsw i64 %28, 2
  br i1 %.not9.i9.i, label %32, label %30

30:                                               ; preds = %26
  %31 = tail call ptr @realloc(ptr noundef nonnull %11, i64 noundef %29) #24
  br label %Vec_IntPush.exit.sink.split

32:                                               ; preds = %26
  %33 = tail call noalias ptr @malloc(i64 noundef %29) #25
  br label %Vec_IntPush.exit.sink.split

Vec_IntPush.exit.sink.split:                      ; preds = %30, %32, %22, %24
  %.sink16 = phi ptr [ %23, %22 ], [ %25, %24 ], [ %31, %30 ], [ %33, %32 ]
  %.sink = phi i32 [ 16, %22 ], [ 16, %24 ], [ %27, %30 ], [ %27, %32 ]
  store ptr %.sink16, ptr %9, align 8, !tbaa !36
  store i32 %.sink, ptr %6, align 8, !tbaa !35
  br label %Vec_IntPush.exit

Vec_IntPush.exit:                                 ; preds = %Vec_IntPush.exit.sink.split, %14
  %.pre.i14 = phi ptr [ %11, %14 ], [ %.sink16, %Vec_IntPush.exit.sink.split ]
  %34 = add nsw i32 %16, 1
  store i32 %34, ptr %7, align 4, !tbaa !34
  %35 = sext i32 %16 to i64
  %36 = getelementptr inbounds i32, ptr %.pre.i14, i64 %35
  store i32 %15, ptr %36, align 4, !tbaa !37
  br label %37

37:                                               ; preds = %.lr.ph, %Vec_IntPush.exit
  %.pre.i13 = phi ptr [ %11, %.lr.ph ], [ %.pre.i14, %Vec_IntPush.exit ]
  %38 = tail call i32 @fgetc(ptr noundef nonnull %2)
  %.not = icmp eq i32 %38, -1
  br i1 %.not, label %._crit_edge, label %.lr.ph, !llvm.loop !101

._crit_edge:                                      ; preds = %37, %5
  %39 = tail call i32 @fclose(ptr noundef nonnull %2)
  br label %40

40:                                               ; preds = %._crit_edge, %4
  %.0 = phi ptr [ null, %4 ], [ %6, %._crit_edge ]
  ret ptr %.0
}